; Function Attrs: mustprogress uwtable
define noundef ptr @_ZN6icu_776Locale19getAvailableLocalesERi(ptr noundef nonnull writeonly align 4 captures(none) dereferenceable(4) initializes((0, 4)) %0) local_unnamed_addr #0 align 2 {
  %2 = load atomic i32, ptr @_ZN6icu_77L15gInitOnceLocaleE acquire, align 4
  %3 = icmp eq i32 %2, 2
  br i1 %3, label %_ZN6icu_7713umtx_initOnceERNS_9UInitOnceEPFvvE.exit, label %4

4:                                                ; preds = %1
  %5 = tail call noundef signext i8 @_ZN6icu_7720umtx_initImplPreInitERNS_9UInitOnceE(ptr noundef nonnull align 4 dereferenceable(8) @_ZN6icu_77L15gInitOnceLocaleE)
  %.not.i = icmp eq i8 %5, 0
  br i1 %.not.i, label %_ZN6icu_7713umtx_initOnceERNS_9UInitOnceEPFvvE.exit, label %6

6:                                                ; preds = %4
  tail call void @_ZN6icu_7721locale_available_initEv()
  tail call void @_ZN6icu_7721umtx_initImplPostInitERNS_9UInitOnceE(ptr noundef nonnull align 4 dereferenceable(8) @_ZN6icu_77L15gInitOnceLocaleE)
  br label %_ZN6icu_7713umtx_initOnceERNS_9UInitOnceEPFvvE.exit

_ZN6icu_7713umtx_initOnceERNS_9UInitOnceEPFvvE.exit: ; preds = %1, %4, %6
  %7 = load i32, ptr @_ZN6icu_77L24availableLocaleListCountE, align 4, !tbaa !10
  store i32 %7, ptr %0, align 4, !tbaa !10
  %8 = load ptr, ptr @_ZN6icu_77L19availableLocaleListE, align 8, !tbaa !12
  ret ptr %8
}